target datalayout = "e-m:e-p270:32:32-p271:32:32-p272:64:64-i64:64-i128:128-f80:128-n8:16:32:64-S128"
target triple = "x86_64-pc-linux-gnu"

%struct._object = type { %union.anon, ptr }
%union.anon = type { i64 }
%struct.PyVarObject = type { %struct._object, i64 }
%struct.anon = type { i32, i32 }
%struct.dequeobject = type { %struct.PyVarObject, ptr, ptr, i64, i64, i64, i64, i64, [16 x ptr], ptr }
%struct.BLOCK = type { ptr, [64 x ptr], ptr }

@_Py_NoneStruct = external global %struct._object, align 8
@PyExc_IndexError = external global ptr, align 8
@PyExc_ValueError = external global ptr, align 8
@.str.39 = private unnamed_addr constant [31 x i8] c"deque mutated during iteration\00", align 1
@.str.44 = private unnamed_addr constant [32 x i8] c"deque.remove(x): x not in deque\00", align 1

; Function Attrs: alwaysinline nounwind uwtable
define internal i32 @_Py_IsImmortal(ptr noundef %0) #4 {
  %2 = alloca ptr, align 8
  store ptr %0, ptr %2, align 8, !tbaa !4
  %3 = load ptr, ptr %2, align 8, !tbaa !4
  %4 = getelementptr inbounds nuw %struct._object, ptr %3, i32 0, i32 0
  %5 = getelementptr inbounds nuw %struct.anon, ptr %4, i32 0, i32 0
  %6 = load i32, ptr %5, align 8, !tbaa !39
  %7 = icmp slt i32 %6, 0
  %8 = zext i1 %7 to i32
  ret i32 %8
}

; Function Attrs: alwaysinline nounwind uwtable
define internal void @Py_INCREF(ptr noundef %0) #4 {
  %2 = alloca ptr, align 8
  %3 = alloca i32, align 4
  %4 = alloca i32, align 4
  store ptr %0, ptr %2, align 8, !tbaa !4
  call void @llvm.lifetime.start.p0(i64 4, ptr %3) #7
  %5 = load ptr, ptr %2, align 8, !tbaa !4
  %6 = getelementptr inbounds nuw %struct._object, ptr %5, i32 0, i32 0
  %7 = getelementptr inbounds nuw %struct.anon, ptr %6, i32 0, i32 0
  %8 = load i32, ptr %7, align 8, !tbaa !39
  store i32 %8, ptr %3, align 4, !tbaa !13
  %9 = load i32, ptr %3, align 4, !tbaa !13
  %10 = icmp slt i32 %9, 0
  br i1 %10, label %11, label %12

11:                                               ; preds = %1
  store i32 1, ptr %4, align 4
  br label %18

12:                                               ; preds = %1
  %13 = load i32, ptr %3, align 4, !tbaa !13
  %14 = add i32 %13, 1
  %15 = load ptr, ptr %2, align 8, !tbaa !4
  %16 = getelementptr inbounds nuw %struct._object, ptr %15, i32 0, i32 0
  %17 = getelementptr inbounds nuw %struct.anon, ptr %16, i32 0, i32 0
  store i32 %14, ptr %17, align 8, !tbaa !39
  store i32 0, ptr %4, align 4
  br label %18

18:                                               ; preds = %12, %11
  call void @llvm.lifetime.end.p0(i64 4, ptr %3) #7
  %19 = load i32, ptr %4, align 4
  switch i32 %19, label %21 [
    i32 0, label %20
    i32 1, label %20
  ]

20:                                               ; preds = %18, %18
  ret void

21:                                               ; preds = %18
  unreachable
}

; Function Attrs: alwaysinline nounwind uwtable
define internal void @Py_DECREF(ptr noundef %0) #4 {
  %2 = alloca ptr, align 8
  store ptr %0, ptr %2, align 8, !tbaa !4
  %3 = load ptr, ptr %2, align 8, !tbaa !4
  %4 = call i32 @_Py_IsImmortal(ptr noundef %3)
  %5 = icmp ne i32 %4, 0
  br i1 %5, label %6, label %7

6:                                                ; preds = %1
  br label %16

7:                                                ; preds = %1
  %8 = load ptr, ptr %2, align 8, !tbaa !4
  %9 = getelementptr inbounds nuw %struct._object, ptr %8, i32 0, i32 0
  %10 = getelementptr inbounds nuw %struct.anon, ptr %9, i32 0, i32 0
  %11 = load i32, ptr %10, align 8, !tbaa !39
  %12 = add i32 %11, -1
  store i32 %12, ptr %10, align 8, !tbaa !39
  %13 = icmp eq i32 %12, 0
  br i1 %13, label %14, label %16

14:                                               ; preds = %7
  %15 = load ptr, ptr %2, align 8, !tbaa !4
  call void @_Py_Dealloc(ptr noundef %15)
  br label %16

16:                                               ; preds = %6, %14, %7
  ret void
}

; Function Attrs: inlinehint nounwind uwtable
define internal ptr @_Py_NewRef(ptr noundef %0) #3 {
  %2 = alloca ptr, align 8
  store ptr %0, ptr %2, align 8, !tbaa !4
  %3 = load ptr, ptr %2, align 8, !tbaa !4
  call void @Py_INCREF(ptr noundef %3)
  %4 = load ptr, ptr %2, align 8, !tbaa !4
  ret ptr %4
}

; Function Attrs: inlinehint nounwind uwtable
define internal i64 @Py_SIZE(ptr noundef %0) #3 {
  %2 = alloca ptr, align 8
  store ptr %0, ptr %2, align 8, !tbaa !4
  %3 = load ptr, ptr %2, align 8, !tbaa !4
  %4 = getelementptr inbounds nuw %struct.PyVarObject, ptr %3, i32 0, i32 1
  %5 = load i64, ptr %4, align 8, !tbaa !72
  ret i64 %5
}

; Function Attrs: nounwind uwtable
define internal ptr @deque_remove_impl(ptr noundef %0, ptr noundef %1) #0 {
  %3 = alloca ptr, align 8
  %4 = alloca ptr, align 8
  %5 = alloca ptr, align 8
  %6 = alloca ptr, align 8
  %7 = alloca ptr, align 8
  %8 = alloca i64, align 8
  %9 = alloca i64, align 8
  %10 = alloca i64, align 8
  %11 = alloca i64, align 8
  %12 = alloca i32, align 4
  %13 = alloca i32, align 4
  %14 = alloca i32, align 4
  store ptr %0, ptr %4, align 8, !tbaa !43
  store ptr %1, ptr %5, align 8, !tbaa !4
  call void @llvm.lifetime.start.p0(i64 8, ptr %6) #7
  call void @llvm.lifetime.start.p0(i64 8, ptr %7) #7
  %15 = load ptr, ptr %4, align 8, !tbaa !43
  %16 = getelementptr inbounds nuw %struct.dequeobject, ptr %15, i32 0, i32 1
  %17 = load ptr, ptr %16, align 8, !tbaa !48
  store ptr %17, ptr %7, align 8, !tbaa !51
  call void @llvm.lifetime.start.p0(i64 8, ptr %8) #7
  call void @llvm.lifetime.start.p0(i64 8, ptr %9) #7
  %18 = load ptr, ptr %4, align 8, !tbaa !43
  %19 = call i64 @Py_SIZE(ptr noundef %18)
  store i64 %19, ptr %9, align 8, !tbaa !24
  call void @llvm.lifetime.start.p0(i64 8, ptr %10) #7
  %20 = load ptr, ptr %4, align 8, !tbaa !43
  %21 = getelementptr inbounds nuw %struct.dequeobject, ptr %20, i32 0, i32 3
  %22 = load i64, ptr %21, align 8, !tbaa !56
  store i64 %22, ptr %10, align 8, !tbaa !24
  call void @llvm.lifetime.start.p0(i64 8, ptr %11) #7
  %23 = load ptr, ptr %4, align 8, !tbaa !43
  %24 = getelementptr inbounds nuw %struct.dequeobject, ptr %23, i32 0, i32 5
  %25 = load i64, ptr %24, align 8, !tbaa !63
  store i64 %25, ptr %11, align 8, !tbaa !24
  call void @llvm.lifetime.start.p0(i64 4, ptr %12) #7
  call void @llvm.lifetime.start.p0(i64 4, ptr %13) #7
  store i64 0, ptr %8, align 8, !tbaa !24
  br label %26

26:                                               ; preds = %66, %2
  %27 = load i64, ptr %8, align 8, !tbaa !24
  %28 = load i64, ptr %9, align 8, !tbaa !24
  %29 = icmp slt i64 %27, %28
  br i1 %29, label %30, label %69

30:                                               ; preds = %26
  %31 = load ptr, ptr %7, align 8, !tbaa !51
  %32 = getelementptr inbounds nuw %struct.BLOCK, ptr %31, i32 0, i32 1
  %33 = load i64, ptr %10, align 8, !tbaa !24
  %34 = getelementptr [64 x ptr], ptr %32, i64 0, i64 %33
  %35 = load ptr, ptr %34, align 8, !tbaa !4
  %36 = call ptr @_Py_NewRef(ptr noundef %35)
  store ptr %36, ptr %6, align 8, !tbaa !4
  %37 = load ptr, ptr %6, align 8, !tbaa !4
  %38 = load ptr, ptr %5, align 8, !tbaa !4
  %39 = call i32 @PyObject_RichCompareBool(ptr noundef %37, ptr noundef %38, i32 noundef 2)
  store i32 %39, ptr %12, align 4, !tbaa !13
  %40 = load ptr, ptr %6, align 8, !tbaa !4
  call void @Py_DECREF(ptr noundef %40)
  %41 = load i32, ptr %12, align 4, !tbaa !13
  %42 = icmp slt i32 %41, 0
  br i1 %42, label %43, label %44

43:                                               ; preds = %30
  store ptr null, ptr %3, align 8
  store i32 1, ptr %14, align 4
  br label %83

44:                                               ; preds = %30
  %45 = load i64, ptr %11, align 8, !tbaa !24
  %46 = load ptr, ptr %4, align 8, !tbaa !43
  %47 = getelementptr inbounds nuw %struct.dequeobject, ptr %46, i32 0, i32 5
  %48 = load i64, ptr %47, align 8, !tbaa !63
  %49 = icmp ne i64 %45, %48
  br i1 %49, label %50, label %52

50:                                               ; preds = %44
  %51 = load ptr, ptr @PyExc_IndexError, align 8, !tbaa !4
  call void @PyErr_SetString(ptr noundef %51, ptr noundef @.str.39)
  store ptr null, ptr %3, align 8
  store i32 1, ptr %14, align 4
  br label %83

52:                                               ; preds = %44
  %53 = load i32, ptr %12, align 4, !tbaa !13
  %54 = icmp sgt i32 %53, 0
  br i1 %54, label %55, label %56

55:                                               ; preds = %52
  br label %69

56:                                               ; preds = %52
  %57 = load i64, ptr %10, align 8, !tbaa !24
  %58 = add i64 %57, 1
  store i64 %58, ptr %10, align 8, !tbaa !24
  %59 = load i64, ptr %10, align 8, !tbaa !24
  %60 = icmp eq i64 %59, 64
  br i1 %60, label %61, label %65

61:                                               ; preds = %56
  %62 = load ptr, ptr %7, align 8, !tbaa !51
  %63 = getelementptr inbounds nuw %struct.BLOCK, ptr %62, i32 0, i32 2
  %64 = load ptr, ptr %63, align 8, !tbaa !58
  store ptr %64, ptr %7, align 8, !tbaa !51
  store i64 0, ptr %10, align 8, !tbaa !24
  br label %65

65:                                               ; preds = %61, %56
  br label %66

66:                                               ; preds = %65
  %67 = load i64, ptr %8, align 8, !tbaa !24
  %68 = add i64 %67, 1
  store i64 %68, ptr %8, align 8, !tbaa !24
  br label %26, !llvm.loop !91

69:                                               ; preds = %55, %26
  %70 = load i64, ptr %8, align 8, !tbaa !24
  %71 = load i64, ptr %9, align 8, !tbaa !24
  %72 = icmp eq i64 %70, %71
  br i1 %72, label %73, label %75

73:                                               ; preds = %69
  %74 = load ptr, ptr @PyExc_ValueError, align 8, !tbaa !4
  call void @PyErr_SetString(ptr noundef %74, ptr noundef @.str.44)
  store ptr null, ptr %3, align 8
  store i32 1, ptr %14, align 4
  br label %83

75:                                               ; preds = %69
  %76 = load ptr, ptr %4, align 8, !tbaa !43
  %77 = load i64, ptr %8, align 8, !tbaa !24
  %78 = call i32 @deque_del_item(ptr noundef %76, i64 noundef %77)
  store i32 %78, ptr %13, align 4, !tbaa !13
  %79 = load i32, ptr %13, align 4, !tbaa !13
  %80 = icmp eq i32 %79, -1
  br i1 %80, label %81, label %82

81:                                               ; preds = %75
  store ptr null, ptr %3, align 8
  store i32 1, ptr %14, align 4
  br label %83

82:                                               ; preds = %75
  store ptr @_Py_NoneStruct, ptr %3, align 8
  store i32 1, ptr %14, align 4
  br label %83

83:                                               ; preds = %82, %81, %73, %50, %43
  call void @llvm.lifetime.end.p0(i64 4, ptr %13) #7
  call void @llvm.lifetime.end.p0(i64 4, ptr %12) #7
  call void @llvm.lifetime.end.p0(i64 8, ptr %11) #7
  call void @llvm.lifetime.end.p0(i64 8, ptr %10) #7
  call void @llvm.lifetime.end.p0(i64 8, ptr %9) #7
  call void @llvm.lifetime.end.p0(i64 8, ptr %8) #7
  call void @llvm.lifetime.end.p0(i64 8, ptr %7) #7
  call void @llvm.lifetime.end.p0(i64 8, ptr %6) #7
  %84 = load ptr, ptr %3, align 8
  ret ptr %84
}

; Function Attrs: nounwind uwtable
define internal ptr @deque_remove(ptr noundef %0, ptr noundef %1) #0 {
  %3 = alloca ptr, align 8
  %4 = alloca ptr, align 8
  %5 = alloca ptr, align 8
  store ptr %0, ptr %3, align 8, !tbaa !43
  store ptr %1, ptr %4, align 8, !tbaa !4
  call void @llvm.lifetime.start.p0(i64 8, ptr %5) #7
  store ptr null, ptr %5, align 8, !tbaa !4
  %6 = load ptr, ptr %3, align 8, !tbaa !43
  %7 = load ptr, ptr %4, align 8, !tbaa !4
  %8 = call ptr @deque_remove_impl(ptr noundef %6, ptr noundef %7)
  store ptr %8, ptr %5, align 8, !tbaa !4
  %9 = load ptr, ptr %5, align 8, !tbaa !4
  call void @llvm.lifetime.end.p0(i64 8, ptr %5) #7
  ret ptr %9
}