; Function Attrs: nounwind uwtable
define internal ptr @deque_remove(ptr noundef captures(none) %0, ptr noundef %1) #0 {
  %3 = getelementptr i8, ptr %0, i64 16
  %.val.i = load i64, ptr %3, align 8, !tbaa !52
  %4 = getelementptr inbounds nuw i8, ptr %0, i64 56
  %5 = load i64, ptr %4, align 8, !tbaa !53
  %6 = icmp sgt i64 %.val.i, 0
  br i1 %6, label %.lr.ph.preheader.i, label %._crit_edge.i

.lr.ph.preheader.i:                               ; preds = %2
  %7 = getelementptr inbounds nuw i8, ptr %0, i64 40
  %8 = load i64, ptr %7, align 8, !tbaa !46
  %9 = getelementptr inbounds nuw i8, ptr %0, i64 24
  %10 = load ptr, ptr %9, align 8, !tbaa !39
  br label %.lr.ph.i

.lr.ph.i:                                         ; preds = %36, %.lr.ph.preheader.i
  %.02435.i = phi ptr [ %.1.i, %36 ], [ %10, %.lr.ph.preheader.i ]
  %.02534.i = phi i64 [ %37, %36 ], [ 0, %.lr.ph.preheader.i ]
  %.02633.i = phi i64 [ %.127.i, %36 ], [ %8, %.lr.ph.preheader.i ]
  %11 = getelementptr inbounds nuw i8, ptr %.02435.i, i64 8
  %12 = getelementptr [64 x ptr], ptr %11, i64 0, i64 %.02633.i
  %13 = load ptr, ptr %12, align 8, !tbaa !21
  %14 = load i32, ptr %13, align 8, !tbaa !20
  %15 = icmp slt i32 %14, 0
  br i1 %15, label %_Py_NewRef.exit.i, label %16

16:                                               ; preds = %.lr.ph.i
  %17 = add nuw i32 %14, 1
  store i32 %17, ptr %13, align 8, !tbaa !20
  br label %_Py_NewRef.exit.i

_Py_NewRef.exit.i:                                ; preds = %16, %.lr.ph.i
  %18 = tail call i32 @PyObject_RichCompareBool(ptr noundef nonnull %13, ptr noundef %1, i32 noundef 2) #9
  %19 = load i32, ptr %13, align 8, !tbaa !20
  %.not.i.i = icmp sgt i32 %19, -1
  br i1 %.not.i.i, label %20, label %Py_DECREF.exit.i

20:                                               ; preds = %_Py_NewRef.exit.i
  %21 = add nsw i32 %19, -1
  store i32 %21, ptr %13, align 8, !tbaa !20
  %22 = icmp eq i32 %21, 0
  br i1 %22, label %23, label %Py_DECREF.exit.i

23:                                               ; preds = %20
  tail call void @_Py_Dealloc(ptr noundef nonnull %13) #9
  br label %Py_DECREF.exit.i

Py_DECREF.exit.i:                                 ; preds = %23, %20, %_Py_NewRef.exit.i
  %24 = icmp slt i32 %18, 0
  br i1 %24, label %deque_remove_impl.exit, label %25

25:                                               ; preds = %Py_DECREF.exit.i
  %26 = load i64, ptr %4, align 8, !tbaa !53
  %.not.i = icmp eq i64 %5, %26
  br i1 %.not.i, label %29, label %27

27:                                               ; preds = %25
  %28 = load ptr, ptr @PyExc_IndexError, align 8, !tbaa !21
  tail call void @PyErr_SetString(ptr noundef %28, ptr noundef nonnull @.str.39) #9
  br label %deque_remove_impl.exit

29:                                               ; preds = %25
  %.not30.i = icmp eq i32 %18, 0
  br i1 %.not30.i, label %30, label %._crit_edge.i

30:                                               ; preds = %29
  %31 = add i64 %.02633.i, 1
  %32 = icmp eq i64 %31, 64
  br i1 %32, label %33, label %36

33:                                               ; preds = %30
  %34 = getelementptr inbounds nuw i8, ptr %.02435.i, i64 520
  %35 = load ptr, ptr %34, align 8, !tbaa !54
  br label %36

36:                                               ; preds = %33, %30
  %.127.i = phi i64 [ 0, %33 ], [ %31, %30 ]
  %.1.i = phi ptr [ %35, %33 ], [ %.02435.i, %30 ]
  %37 = add nuw nsw i64 %.02534.i, 1
  %exitcond.not.i = icmp eq i64 %37, %.val.i
  br i1 %exitcond.not.i, label %._crit_edge.thread.i, label %.lr.ph.i, !llvm.loop !84

._crit_edge.i:                                    ; preds = %29, %2
  %.025.lcssa.i = phi i64 [ 0, %2 ], [ %.02534.i, %29 ]
  %38 = icmp eq i64 %.025.lcssa.i, %.val.i
  br i1 %38, label %._crit_edge.thread.i, label %40

._crit_edge.thread.i:                             ; preds = %36, %._crit_edge.i
  %39 = load ptr, ptr @PyExc_ValueError, align 8, !tbaa !21
  tail call void @PyErr_SetString(ptr noundef %39, ptr noundef nonnull @.str.44) #9
  br label %deque_remove_impl.exit

40:                                               ; preds = %._crit_edge.i
  %41 = tail call fastcc i32 @deque_del_item(ptr noundef nonnull %0, i64 noundef %.025.lcssa.i)
  %42 = icmp eq i32 %41, -1
  %._Py_NoneStruct.i = select i1 %42, ptr null, ptr @_Py_NoneStruct
  br label %deque_remove_impl.exit

deque_remove_impl.exit:                           ; preds = %Py_DECREF.exit.i, %27, %._crit_edge.thread.i, %40
  %.0.i = phi ptr [ null, %27 ], [ null, %._crit_edge.thread.i ], [ %._Py_NoneStruct.i, %40 ], [ null, %Py_DECREF.exit.i ]
  ret ptr %.0.i
}